; Function Attrs: nounwind uwtable
define internal fastcc void @psset_alloc_container_insert(ptr noundef %0, ptr noundef initializes((18, 19)) %1) unnamed_addr #0 {
  %3 = getelementptr inbounds nuw i8, ptr %1, i64 18
  store i8 1, ptr %3, align 2, !tbaa !17
  %4 = getelementptr i8, ptr %1, i64 104
  %.val = load i64, ptr %4, align 8, !tbaa !20
  switch i64 %.val, label %25 [
    i64 0, label %5
    i64 512, label %56
  ]

5:                                                ; preds = %2
  %6 = getelementptr inbounds nuw i8, ptr %0, i64 4224
  %7 = getelementptr inbounds nuw i8, ptr %1, i64 40
  store ptr %1, ptr %7, align 8, !tbaa !33
  %8 = getelementptr inbounds nuw i8, ptr %1, i64 48
  store ptr %1, ptr %8, align 8, !tbaa !33
  %9 = load ptr, ptr %6, align 8, !tbaa !32
  %10 = icmp eq ptr %9, null
  br i1 %10, label %hpdata_empty_list_prepend.exit, label %11

11:                                               ; preds = %5
  %12 = getelementptr inbounds nuw i8, ptr %9, i64 48
  %13 = load ptr, ptr %12, align 8, !tbaa !33
  store ptr %13, ptr %7, align 8, !tbaa !33
  %14 = load ptr, ptr %6, align 8, !tbaa !32
  %15 = getelementptr inbounds nuw i8, ptr %14, i64 48
  store ptr %1, ptr %15, align 8, !tbaa !33
  %16 = load ptr, ptr %8, align 8, !tbaa !33
  %17 = getelementptr inbounds nuw i8, ptr %16, i64 40
  %18 = load ptr, ptr %17, align 8, !tbaa !33
  store ptr %18, ptr %8, align 8, !tbaa !33
  %19 = load ptr, ptr %6, align 8, !tbaa !32
  %20 = getelementptr inbounds nuw i8, ptr %19, i64 48
  %21 = load ptr, ptr %20, align 8, !tbaa !33
  %22 = getelementptr inbounds nuw i8, ptr %21, i64 40
  store ptr %19, ptr %22, align 8, !tbaa !33
  %23 = load ptr, ptr %8, align 8, !tbaa !33
  %24 = getelementptr inbounds nuw i8, ptr %23, i64 40
  store ptr %1, ptr %24, align 8, !tbaa !33
  br label %hpdata_empty_list_prepend.exit

hpdata_empty_list_prepend.exit:                   ; preds = %5, %11
  store ptr %1, ptr %6, align 8, !tbaa !32
  br label %56

25:                                               ; preds = %2
  %26 = getelementptr i8, ptr %1, i64 96
  %.val.i = load i64, ptr %26, align 8, !tbaa !30
  %27 = shl i64 %.val.i, 12
  %28 = tail call i64 @duckdb_je_sz_psz_quantize_floor(i64 noundef %27) #9
  %29 = icmp ugt i64 %28, 8070450532247928832
  br i1 %29, label %psset_hpdata_heap_index.exit.i, label %30, !prof !31

30:                                               ; preds = %25
  %31 = icmp ne i64 %28, 0
  tail call void @llvm.assume(i1 %31)
  %32 = add nsw i64 %28, -1
  %33 = tail call range(i64 0, 65) i64 @llvm.ctlz.i64(i64 %32, i1 false)
  %34 = trunc nuw nsw i64 %33 to i32
  %35 = tail call i32 @llvm.usub.sat.i32(i32 50, i32 %34)
  %36 = icmp samesign ult i64 %28, 16385
  %37 = add nuw nsw i32 %35, 11
  %38 = zext nneg i32 %37 to i64
  %39 = select i1 %36, i64 12, i64 %38
  %40 = lshr i64 %32, %39
  %41 = trunc i64 %40 to i32
  %42 = and i32 %41, 3
  %43 = shl nuw nsw i32 %35, 2
  %44 = or disjoint i32 %42, %43
  %45 = zext nneg i32 %44 to i64
  br label %psset_hpdata_heap_index.exit.i

psset_hpdata_heap_index.exit.i:                   ; preds = %30, %25
  %.0.i.i.i = phi i64 [ %45, %30 ], [ 199, %25 ]
  %46 = getelementptr inbounds nuw [64 x %struct.hpdata_age_heap_t], ptr %0, i64 0, i64 %.0.i.i.i
  %47 = tail call zeroext i1 @duckdb_je_hpdata_age_heap_empty(ptr noundef %46) #9
  br i1 %47, label %48, label %psset_hpdata_heap_insert.exit

48:                                               ; preds = %psset_hpdata_heap_index.exit.i
  %49 = getelementptr inbounds nuw i8, ptr %0, i64 1024
  %50 = lshr i64 %.0.i.i.i, 6
  %51 = and i64 %.0.i.i.i, 63
  %52 = shl nuw i64 1, %51
  %53 = getelementptr inbounds nuw i64, ptr %49, i64 %50
  %54 = load i64, ptr %53, align 8, !tbaa !34
  %55 = or i64 %54, %52
  store i64 %55, ptr %53, align 8, !tbaa !34
  br label %psset_hpdata_heap_insert.exit

psset_hpdata_heap_insert.exit:                    ; preds = %psset_hpdata_heap_index.exit.i, %48
  tail call void @duckdb_je_hpdata_age_heap_insert(ptr noundef %46, ptr noundef nonnull %1) #9
  br label %56

56:                                               ; preds = %2, %psset_hpdata_heap_insert.exit, %hpdata_empty_list_prepend.exit
  ret void
}